target datalayout = "e-m:e-p270:32:32-p271:32:32-p272:64:64-i64:64-i128:128-f80:128-n8:16:32:64-S128"
target triple = "x86_64-pc-linux-gnu"

%struct.hlCheck = type { ptr, i32 }
%struct.HeadlineWordEntry = type { i32, i16, ptr, ptr }
%struct.ExecPhraseData = type { i32, i8, i8, ptr, i32 }

; Function Attrs: nounwind uwtable
define internal i32 @checkcondition_HL(ptr noundef %0, ptr noundef %1, ptr noundef %2) #0 {
  %4 = alloca i32, align 4
  %5 = alloca ptr, align 8
  %6 = alloca ptr, align 8
  %7 = alloca ptr, align 8
  %8 = alloca ptr, align 8
  %9 = alloca i32, align 4
  %10 = alloca i32, align 4
  store ptr %0, ptr %5, align 8
  store ptr %1, ptr %6, align 8
  store ptr %2, ptr %7, align 8
  call void @llvm.lifetime.start.p0(i64 8, ptr %8) #11
  %11 = load ptr, ptr %5, align 8
  store ptr %11, ptr %8, align 8
  call void @llvm.lifetime.start.p0(i64 4, ptr %9) #11
  store i32 0, ptr %9, align 4
  br label %12

12:                                               ; preds = %106, %3
  %13 = load i32, ptr %9, align 4
  %14 = load ptr, ptr %8, align 8
  %15 = getelementptr inbounds nuw %struct.hlCheck, ptr %14, i32 0, i32 1
  %16 = load i32, ptr %15, align 8
  %17 = icmp slt i32 %13, %16
  br i1 %17, label %18, label %109

18:                                               ; preds = %12
  %19 = load ptr, ptr %8, align 8
  %20 = getelementptr inbounds nuw %struct.hlCheck, ptr %19, i32 0, i32 0
  %21 = load ptr, ptr %20, align 8
  %22 = load i32, ptr %9, align 4
  %23 = sext i32 %22 to i64
  %24 = getelementptr inbounds %struct.HeadlineWordEntry, ptr %21, i64 %23
  %25 = getelementptr inbounds nuw %struct.HeadlineWordEntry, ptr %24, i32 0, i32 3
  %26 = load ptr, ptr %25, align 8
  %27 = load ptr, ptr %6, align 8
  %28 = icmp eq ptr %26, %27
  br i1 %28, label %29, label %105

29:                                               ; preds = %18
  %30 = load ptr, ptr %7, align 8
  %31 = icmp ne ptr %30, null
  br i1 %31, label %33, label %32

32:                                               ; preds = %29
  store i32 1, ptr %4, align 4
  store i32 1, ptr %10, align 4
  br label %119

33:                                               ; preds = %29
  %34 = load ptr, ptr %7, align 8
  %35 = getelementptr inbounds nuw %struct.ExecPhraseData, ptr %34, i32 0, i32 3
  %36 = load ptr, ptr %35, align 8
  %37 = icmp ne ptr %36, null
  br i1 %37, label %63, label %38

38:                                               ; preds = %33
  %39 = load ptr, ptr %8, align 8
  %40 = getelementptr inbounds nuw %struct.hlCheck, ptr %39, i32 0, i32 1
  %41 = load i32, ptr %40, align 8
  %42 = sext i32 %41 to i64
  %43 = mul i64 2, %42
  %44 = call ptr @palloc(i64 noundef %43)
  %45 = load ptr, ptr %7, align 8
  %46 = getelementptr inbounds nuw %struct.ExecPhraseData, ptr %45, i32 0, i32 3
  store ptr %44, ptr %46, align 8
  %47 = load ptr, ptr %7, align 8
  %48 = getelementptr inbounds nuw %struct.ExecPhraseData, ptr %47, i32 0, i32 1
  store i8 1, ptr %48, align 4
  %49 = load ptr, ptr %7, align 8
  %50 = getelementptr inbounds nuw %struct.ExecPhraseData, ptr %49, i32 0, i32 0
  store i32 1, ptr %50, align 8
  %51 = load ptr, ptr %8, align 8
  %52 = getelementptr inbounds nuw %struct.hlCheck, ptr %51, i32 0, i32 0
  %53 = load ptr, ptr %52, align 8
  %54 = load i32, ptr %9, align 4
  %55 = sext i32 %54 to i64
  %56 = getelementptr inbounds %struct.HeadlineWordEntry, ptr %53, i64 %55
  %57 = getelementptr inbounds nuw %struct.HeadlineWordEntry, ptr %56, i32 0, i32 1
  %58 = load i16, ptr %57, align 4
  %59 = load ptr, ptr %7, align 8
  %60 = getelementptr inbounds nuw %struct.ExecPhraseData, ptr %59, i32 0, i32 3
  %61 = load ptr, ptr %60, align 8
  %62 = getelementptr inbounds i16, ptr %61, i64 0
  store i16 %58, ptr %62, align 2
  br label %104

63:                                               ; preds = %33
  %64 = load ptr, ptr %7, align 8
  %65 = getelementptr inbounds nuw %struct.ExecPhraseData, ptr %64, i32 0, i32 3
  %66 = load ptr, ptr %65, align 8
  %67 = load ptr, ptr %7, align 8
  %68 = getelementptr inbounds nuw %struct.ExecPhraseData, ptr %67, i32 0, i32 0
  %69 = load i32, ptr %68, align 8
  %70 = sub i32 %69, 1
  %71 = sext i32 %70 to i64
  %72 = getelementptr inbounds i16, ptr %66, i64 %71
  %73 = load i16, ptr %72, align 2
  %74 = zext i16 %73 to i32
  %75 = load ptr, ptr %8, align 8
  %76 = getelementptr inbounds nuw %struct.hlCheck, ptr %75, i32 0, i32 0
  %77 = load ptr, ptr %76, align 8
  %78 = load i32, ptr %9, align 4
  %79 = sext i32 %78 to i64
  %80 = getelementptr inbounds %struct.HeadlineWordEntry, ptr %77, i64 %79
  %81 = getelementptr inbounds nuw %struct.HeadlineWordEntry, ptr %80, i32 0, i32 1
  %82 = load i16, ptr %81, align 4
  %83 = zext i16 %82 to i32
  %84 = icmp slt i32 %74, %83
  br i1 %84, label %85, label %103

85:                                               ; preds = %63
  %86 = load ptr, ptr %8, align 8
  %87 = getelementptr inbounds nuw %struct.hlCheck, ptr %86, i32 0, i32 0
  %88 = load ptr, ptr %87, align 8
  %89 = load i32, ptr %9, align 4
  %90 = sext i32 %89 to i64
  %91 = getelementptr inbounds %struct.HeadlineWordEntry, ptr %88, i64 %90
  %92 = getelementptr inbounds nuw %struct.HeadlineWordEntry, ptr %91, i32 0, i32 1
  %93 = load i16, ptr %92, align 4
  %94 = load ptr, ptr %7, align 8
  %95 = getelementptr inbounds nuw %struct.ExecPhraseData, ptr %94, i32 0, i32 3
  %96 = load ptr, ptr %95, align 8
  %97 = load ptr, ptr %7, align 8
  %98 = getelementptr inbounds nuw %struct.ExecPhraseData, ptr %97, i32 0, i32 0
  %99 = load i32, ptr %98, align 8
  %100 = add i32 %99, 1
  store i32 %100, ptr %98, align 8
  %101 = sext i32 %99 to i64
  %102 = getelementptr inbounds i16, ptr %96, i64 %101
  store i16 %93, ptr %102, align 2
  br label %103

103:                                              ; preds = %85, %63
  br label %104

104:                                              ; preds = %103, %38
  br label %105

105:                                              ; preds = %104, %18
  br label %106

106:                                              ; preds = %105
  %107 = load i32, ptr %9, align 4
  %108 = add i32 %107, 1
  store i32 %108, ptr %9, align 4
  br label %12, !llvm.loop !13

109:                                              ; preds = %12
  %110 = load ptr, ptr %7, align 8
  %111 = icmp ne ptr %110, null
  br i1 %111, label %112, label %118

112:                                              ; preds = %109
  %113 = load ptr, ptr %7, align 8
  %114 = getelementptr inbounds nuw %struct.ExecPhraseData, ptr %113, i32 0, i32 0
  %115 = load i32, ptr %114, align 8
  %116 = icmp sgt i32 %115, 0
  br i1 %116, label %117, label %118

117:                                              ; preds = %112
  store i32 1, ptr %4, align 4
  store i32 1, ptr %10, align 4
  br label %119

118:                                              ; preds = %112, %109
  store i32 0, ptr %4, align 4
  store i32 1, ptr %10, align 4
  br label %119

119:                                              ; preds = %118, %117, %32
  call void @llvm.lifetime.end.p0(i64 4, ptr %9) #11
  call void @llvm.lifetime.end.p0(i64 8, ptr %8) #11
  %120 = load i32, ptr %4, align 4
  ret i32 %120
}