; Function Attrs: nounwind uwtable
define internal range(i32 0, 2) i32 @checkcondition_HL(ptr noundef readonly captures(none) %0, ptr noundef readnone captures(address) %1, ptr noundef captures(address_is_null) %2) #0 {
  %4 = getelementptr inbounds nuw i8, ptr %0, i64 8
  %5 = load i32, ptr %4, align 8
  %6 = icmp sgt i32 %5, 0
  br i1 %6, label %.lr.ph, label %._crit_edge

.lr.ph:                                           ; preds = %3
  %.not30 = icmp eq ptr %2, null
  %7 = getelementptr inbounds nuw i8, ptr %2, i64 8
  %8 = getelementptr inbounds nuw i8, ptr %2, i64 4
  br i1 %.not30, label %.lr.ph.split.us, label %.lr.ph.split

.lr.ph.split.us:                                  ; preds = %.lr.ph
  %9 = load ptr, ptr %0, align 8
  %invariant.gep = getelementptr inbounds nuw i8, ptr %9, i64 16
  %10 = zext nneg i32 %5 to i64
  br label %11

11:                                               ; preds = %14, %.lr.ph.split.us
  %indvars.iv35 = phi i64 [ %indvars.iv.next36, %14 ], [ 0, %.lr.ph.split.us ]
  %gep = getelementptr inbounds nuw %struct.HeadlineWordEntry, ptr %invariant.gep, i64 %indvars.iv35
  %12 = load ptr, ptr %gep, align 8
  %13 = icmp eq ptr %12, %1
  br i1 %13, label %.loopexit, label %14

14:                                               ; preds = %11
  %indvars.iv.next36 = add nuw nsw i64 %indvars.iv35, 1
  %15 = icmp samesign ult i64 %indvars.iv.next36, %10
  br i1 %15, label %11, label %._crit_edge, !llvm.loop !32

.lr.ph.split:                                     ; preds = %.lr.ph, %44
  %indvars.iv = phi i64 [ %indvars.iv.next, %44 ], [ 0, %.lr.ph ]
  %16 = phi i32 [ %45, %44 ], [ %5, %.lr.ph ]
  %17 = load ptr, ptr %0, align 8
  %18 = getelementptr inbounds nuw %struct.HeadlineWordEntry, ptr %17, i64 %indvars.iv
  %19 = getelementptr inbounds nuw i8, ptr %18, i64 16
  %20 = load ptr, ptr %19, align 8
  %21 = icmp eq ptr %20, %1
  br i1 %21, label %22, label %44

22:                                               ; preds = %.lr.ph.split
  %23 = load ptr, ptr %7, align 8
  %.not31 = icmp eq ptr %23, null
  br i1 %.not31, label %24, label %31

24:                                               ; preds = %22
  %25 = sext i32 %16 to i64
  %26 = shl nsw i64 %25, 1
  %27 = tail call ptr @palloc(i64 noundef %26) #16
  store ptr %27, ptr %7, align 8
  store i8 1, ptr %8, align 4
  store i32 1, ptr %2, align 8
  %28 = load ptr, ptr %0, align 8
  %29 = getelementptr inbounds nuw %struct.HeadlineWordEntry, ptr %28, i64 %indvars.iv, i32 1
  %30 = load i16, ptr %29, align 4
  store i16 %30, ptr %27, align 2
  br label %44

31:                                               ; preds = %22
  %32 = load i32, ptr %2, align 8
  %33 = add i32 %32, -1
  %34 = sext i32 %33 to i64
  %35 = getelementptr inbounds i16, ptr %23, i64 %34
  %36 = load i16, ptr %35, align 2
  %37 = getelementptr inbounds nuw i8, ptr %18, i64 4
  %38 = load i16, ptr %37, align 4
  %39 = icmp ult i16 %36, %38
  br i1 %39, label %40, label %44

40:                                               ; preds = %31
  %41 = add i32 %32, 1
  store i32 %41, ptr %2, align 8
  %42 = sext i32 %32 to i64
  %43 = getelementptr inbounds i16, ptr %23, i64 %42
  store i16 %38, ptr %43, align 2
  br label %44

44:                                               ; preds = %.lr.ph.split, %31, %40, %24
  %indvars.iv.next = add nuw nsw i64 %indvars.iv, 1
  %45 = load i32, ptr %4, align 8
  %46 = sext i32 %45 to i64
  %47 = icmp slt i64 %indvars.iv.next, %46
  br i1 %47, label %.lr.ph.split, label %._crit_edge, !llvm.loop !32

._crit_edge:                                      ; preds = %44, %14, %3
  %.not = icmp eq ptr %2, null
  br i1 %.not, label %51, label %48

48:                                               ; preds = %._crit_edge
  %49 = load i32, ptr %2, align 8
  %50 = icmp sgt i32 %49, 0
  br i1 %50, label %.loopexit, label %51

51:                                               ; preds = %48, %._crit_edge
  br label %.loopexit

.loopexit:                                        ; preds = %11, %48, %51
  %.026 = phi i32 [ 0, %51 ], [ 1, %48 ], [ 1, %11 ]
  ret i32 %.026
}